; ModuleID = '40/116.c'
source_filename = "40/116.c"
target datalayout = "e-m:e-p270:32:32-p271:32:32-p272:64:64-i64:64-f80:128-n8:16:32:64-S128"
target triple = "x86_64-pc-linux-gnu"

@.str = private unnamed_addr constant [4 x i8] c"%lf\00", align 1
@.str.1 = private unnamed_addr constant [15 x i8] c"Invalid input\0A\00", align 1
@.str.2 = private unnamed_addr constant [7 x i8] c"%.4lf\0A\00", align 1

; Function Attrs: noinline nounwind uwtable
define dso_local i32 @main(i32 %0, i8** %1) #0 {
  %3 = alloca i32, align 4
  %4 = alloca i32, align 4
  %5 = alloca i8**, align 8
  %6 = alloca double, align 8
  %7 = alloca double, align 8
  %8 = alloca double, align 8
  %9 = alloca double, align 8
  %10 = alloca double, align 8
  %11 = alloca double, align 8
  %12 = alloca double, align 8
  store i32 0, i32* %3, align 4
  store i32 %0, i32* %4, align 4
  store i8** %1, i8*** %5, align 8
  %13 = call i32 (i8*, ...) @__isoc99_scanf(i8* getelementptr inbounds ([4 x i8], [4 x i8]* @.str, i64 0, i64 0), double* %6)
  %14 = call i32 (i8*, ...) @__isoc99_scanf(i8* getelementptr inbounds ([4 x i8], [4 x i8]* @.str, i64 0, i64 0), double* %7)
  %15 = call i32 (i8*, ...) @__isoc99_scanf(i8* getelementptr inbounds ([4 x i8], [4 x i8]* @.str, i64 0, i64 0), double* %8)
  %16 = call i32 (i8*, ...) @__isoc99_scanf(i8* getelementptr inbounds ([4 x i8], [4 x i8]* @.str, i64 0, i64 0), double* %9)
  %17 = call i32 (i8*, ...) @__isoc99_scanf(i8* getelementptr inbounds ([4 x i8], [4 x i8]* @.str, i64 0, i64 0), double* %10)
  %18 = load double, double* %6, align 8
  %19 = load double, double* %7, align 8
  %20 = fadd double %18, %19
  %21 = load double, double* %8, align 8
  %22 = fadd double %20, %21
  %23 = load double, double* %9, align 8
  %24 = fadd double %22, %23
  %25 = fdiv double %24, 2.000000e+00
  store double %25, double* %11, align 8
  %26 = load double, double* %11, align 8
  %27 = load double, double* %6, align 8
  %28 = fsub double %26, %27
  %29 = load double, double* %11, align 8
  %30 = load double, double* %7, align 8
  %31 = fsub double %29, %30
  %32 = fmul double %28, %31
  %33 = load double, double* %11, align 8
  %34 = load double, double* %8, align 8
  %35 = fsub double %33, %34
  %36 = fmul double %32, %35
  %37 = load double, double* %11, align 8
  %38 = load double, double* %9, align 8
  %39 = fsub double %37, %38
  %40 = fmul double %36, %39
  %41 = load double, double* %6, align 8
  %42 = load double, double* %7, align 8
  %43 = fmul double %41, %42
  %44 = load double, double* %8, align 8
  %45 = fmul double %43, %44
  %46 = load double, double* %9, align 8
  %47 = fmul double %45, %46
  %48 = load double, double* %10, align 8
  %49 = fmul double %48, 3.140000e+00
  %50 = fdiv double %49, 2.000000e+00
  %51 = fdiv double %50, 1.800000e+02
  %52 = call double @cos(double %51) #3
  %53 = fmul double %47, %52
  %54 = load double, double* %10, align 8
  %55 = fmul double %54, 3.140000e+00
  %56 = fdiv double %55, 2.000000e+00
  %57 = fdiv double %56, 1.800000e+02
  %58 = call double @cos(double %57) #3
  %59 = fmul double %53, %58
  %60 = fsub double %40, %59
  %61 = call double @sqrt(double %60) #3
  store double %61, double* %12, align 8
  %62 = load double, double* %11, align 8
  %63 = load double, double* %6, align 8
  %64 = fsub double %62, %63
  %65 = load double, double* %11, align 8
  %66 = load double, double* %7, align 8
  %67 = fsub double %65, %66
  %68 = fmul double %64, %67
  %69 = load double, double* %11, align 8
  %70 = load double, double* %8, align 8
  %71 = fsub double %69, %70
  %72 = fmul double %68, %71
  %73 = load double, double* %11, align 8
  %74 = load double, double* %9, align 8
  %75 = fsub double %73, %74
  %76 = fmul double %72, %75
  %77 = load double, double* %6, align 8
  %78 = load double, double* %7, align 8
  %79 = fmul double %77, %78
  %80 = load double, double* %8, align 8
  %81 = fmul double %79, %80
  %82 = load double, double* %9, align 8
  %83 = fmul double %81, %82
  %84 = load double, double* %10, align 8
  %85 = fmul double %84, 3.140000e+00
  %86 = fdiv double %85, 2.000000e+00
  %87 = fdiv double %86, 1.800000e+02
  %88 = call double @cos(double %87) #3
  %89 = fmul double %83, %88
  %90 = load double, double* %10, align 8
  %91 = fmul double %90, 3.140000e+00
  %92 = fdiv double %91, 2.000000e+00
  %93 = fdiv double %92, 1.800000e+02
  %94 = call double @cos(double %93) #3
  %95 = fmul double %89, %94
  %96 = fsub double %76, %95
  %97 = fcmp olt double %96, 0.000000e+00
  br i1 %97, label %98, label %100

98:                                               ; preds = %2
  %99 = call i32 (i8*, ...) @printf(i8* getelementptr inbounds ([15 x i8], [15 x i8]* @.str.1, i64 0, i64 0))
  br label %103

100:                                              ; preds = %2
  %101 = load double, double* %12, align 8
  %102 = call i32 (i8*, ...) @printf(i8* getelementptr inbounds ([7 x i8], [7 x i8]* @.str.2, i64 0, i64 0), double %101)
  br label %103

103:                                              ; preds = %100, %98
  ret i32 0
}

declare dso_local i32 @__isoc99_scanf(i8*, ...) #1

; Function Attrs: nounwind
declare dso_local double @sqrt(double) #2

; Function Attrs: nounwind
declare dso_local double @cos(double) #2

declare dso_local i32 @printf(i8*, ...) #1


!llvm.module.flags = !{!0}
!llvm.ident = !{!1}

!0 = !{i32 1, !"wchar_size", i32 4}
!1 = !{!"clang version 10.0.0-4ubuntu1 "}
